target datalayout = "e-m:e-p270:32:32-p271:32:32-p272:64:64-i64:64-i128:128-f80:128-n8:16:32:64-S128"
target triple = "x86_64-pc-linux-gnu"

@.str.11 = private unnamed_addr constant [37 x i8] c"../openssl/test/rsa_sp800_56b_test.c\00", align 1
@.str.43 = private unnamed_addr constant [16 x i8] c"key = RSA_new()\00", align 1
@.str.90 = private unnamed_addr constant [38 x i8] c"n = bn_load_new(cav_n, sizeof(cav_n))\00", align 1
@.str.92 = private unnamed_addr constant [38 x i8] c"e = bn_load_new(cav_e, sizeof(cav_e))\00", align 1
@cav_e = internal constant [3 x i8] c"\01\00\01", align 1
@.str.95 = private unnamed_addr constant [37 x i8] c"ossl_rsa_sp800_56b_check_public(key)\00", align 1
@.str.96 = private unnamed_addr constant [30 x i8] c"RSA_set0_key(key, n, e, NULL)\00", align 1
@.str.97 = private unnamed_addr constant [18 x i8] c"BN_add_word(n, 1)\00", align 1
@.str.98 = private unnamed_addr constant [18 x i8] c"BN_sub_word(n, 1)\00", align 1
@.str.99 = private unnamed_addr constant [17 x i8] c"BN_lshift1(n, n)\00", align 1
@.str.100 = private unnamed_addr constant [17 x i8] c"BN_rshift1(n, n)\00", align 1
@.str.101 = private unnamed_addr constant [18 x i8] c"BN_add_word(e, 1)\00", align 1
@.str.102 = private unnamed_addr constant [18 x i8] c"BN_sub_word(e, 1)\00", align 1
@.str.103 = private unnamed_addr constant [18 x i8] c"BN_add_word(n, 2)\00", align 1

; Function Attrs: nounwind uwtable
define internal ptr @bn_load_new(ptr noundef %0, i32 noundef %1) #0 {
  %3 = alloca ptr, align 8
  %4 = alloca i32, align 4
  %5 = alloca ptr, align 8
  store ptr %0, ptr %3, align 8, !tbaa !36
  store i32 %1, ptr %4, align 4, !tbaa !4
  call void @llvm.lifetime.start.p0(i64 8, ptr %5) #3
  %6 = call ptr @BN_new()
  store ptr %6, ptr %5, align 8, !tbaa !8
  %7 = load ptr, ptr %5, align 8, !tbaa !8
  %8 = icmp ne ptr %7, null
  br i1 %8, label %9, label %14

9:                                                ; preds = %2
  %10 = load ptr, ptr %3, align 8, !tbaa !36
  %11 = load i32, ptr %4, align 4, !tbaa !4
  %12 = load ptr, ptr %5, align 8, !tbaa !8
  %13 = call ptr @BN_bin2bn(ptr noundef %10, i32 noundef %11, ptr noundef %12)
  br label %14

14:                                               ; preds = %9, %2
  %15 = load ptr, ptr %5, align 8, !tbaa !8
  call void @llvm.lifetime.end.p0(i64 8, ptr %5) #3
  ret ptr %15
}

; Function Attrs: nounwind uwtable
define internal i32 @test_check_public_key() #0 {
  %1 = alloca i32, align 4
  %2 = alloca ptr, align 8
  %3 = alloca ptr, align 8
  %4 = alloca ptr, align 8
  call void @llvm.lifetime.start.p0(i64 4, ptr %1) #3
  store i32 0, ptr %1, align 4, !tbaa !4
  call void @llvm.lifetime.start.p0(i64 8, ptr %2) #3
  store ptr null, ptr %2, align 8, !tbaa !8
  call void @llvm.lifetime.start.p0(i64 8, ptr %3) #3
  store ptr null, ptr %3, align 8, !tbaa !8
  call void @llvm.lifetime.start.p0(i64 8, ptr %4) #3
  store ptr null, ptr %4, align 8, !tbaa !13
  %5 = call ptr @RSA_new()
  store ptr %5, ptr %4, align 8, !tbaa !13
  %6 = call i32 @test_ptr(ptr noundef @.str.11, i32 noundef 542, ptr noundef @.str.43, ptr noundef %5)
  %7 = icmp ne i32 %6, 0
  br i1 %7, label %8, label %32

8:                                                ; preds = %0
  %9 = load ptr, ptr %4, align 8, !tbaa !13
  %10 = call i32 @ossl_rsa_sp800_56b_check_public(ptr noundef %9)
  %11 = icmp ne i32 %10, 0
  %12 = zext i1 %11 to i32
  %13 = call i32 @test_false(ptr noundef @.str.11, i32 noundef 544, ptr noundef @.str.95, i32 noundef %12)
  %14 = icmp ne i32 %13, 0
  br i1 %14, label %15, label %32

15:                                               ; preds = %8
  %16 = call ptr @bn_load_new(ptr noundef @cav_e, i32 noundef 3)
  store ptr %16, ptr %3, align 8, !tbaa !8
  %17 = call i32 @test_ptr(ptr noundef @.str.11, i32 noundef 546, ptr noundef @.str.92, ptr noundef %16)
  %18 = icmp ne i32 %17, 0
  br i1 %18, label %19, label %32

19:                                               ; preds = %15
  %20 = call ptr @bn_load_new(ptr noundef @cav_n, i32 noundef 256)
  store ptr %20, ptr %2, align 8, !tbaa !8
  %21 = call i32 @test_ptr(ptr noundef @.str.11, i32 noundef 547, ptr noundef @.str.90, ptr noundef %20)
  %22 = icmp ne i32 %21, 0
  br i1 %22, label %23, label %32

23:                                               ; preds = %19
  %24 = load ptr, ptr %4, align 8, !tbaa !13
  %25 = load ptr, ptr %2, align 8, !tbaa !8
  %26 = load ptr, ptr %3, align 8, !tbaa !8
  %27 = call i32 @RSA_set0_key(ptr noundef %24, ptr noundef %25, ptr noundef %26, ptr noundef null)
  %28 = icmp ne i32 %27, 0
  %29 = zext i1 %28 to i32
  %30 = call i32 @test_true(ptr noundef @.str.11, i32 noundef 548, ptr noundef @.str.96, i32 noundef %29)
  %31 = icmp ne i32 %30, 0
  br label %32

32:                                               ; preds = %23, %19, %15, %8, %0
  %33 = phi i1 [ false, %19 ], [ false, %15 ], [ false, %8 ], [ false, %0 ], [ %31, %23 ]
  %34 = zext i1 %33 to i32
  store i32 %34, ptr %1, align 4, !tbaa !4
  %35 = load i32, ptr %1, align 4, !tbaa !4
  %36 = icmp ne i32 %35, 0
  br i1 %36, label %40, label %37

37:                                               ; preds = %32
  %38 = load ptr, ptr %3, align 8, !tbaa !8
  call void @BN_free(ptr noundef %38)
  %39 = load ptr, ptr %2, align 8, !tbaa !8
  call void @BN_free(ptr noundef %39)
  br label %129

40:                                               ; preds = %32
  %41 = load ptr, ptr %4, align 8, !tbaa !13
  %42 = call i32 @ossl_rsa_sp800_56b_check_public(ptr noundef %41)
  %43 = icmp ne i32 %42, 0
  %44 = zext i1 %43 to i32
  %45 = call i32 @test_true(ptr noundef @.str.11, i32 noundef 555, ptr noundef @.str.95, i32 noundef %44)
  %46 = icmp ne i32 %45, 0
  br i1 %46, label %47, label %126

47:                                               ; preds = %40
  %48 = load ptr, ptr %2, align 8, !tbaa !8
  %49 = call i32 @BN_add_word(ptr noundef %48, i64 noundef 1)
  %50 = icmp ne i32 %49, 0
  %51 = zext i1 %50 to i32
  %52 = call i32 @test_true(ptr noundef @.str.11, i32 noundef 557, ptr noundef @.str.97, i32 noundef %51)
  %53 = icmp ne i32 %52, 0
  br i1 %53, label %54, label %126

54:                                               ; preds = %47
  %55 = load ptr, ptr %4, align 8, !tbaa !13
  %56 = call i32 @ossl_rsa_sp800_56b_check_public(ptr noundef %55)
  %57 = icmp ne i32 %56, 0
  %58 = zext i1 %57 to i32
  %59 = call i32 @test_false(ptr noundef @.str.11, i32 noundef 558, ptr noundef @.str.95, i32 noundef %58)
  %60 = icmp ne i32 %59, 0
  br i1 %60, label %61, label %126

61:                                               ; preds = %54
  %62 = load ptr, ptr %2, align 8, !tbaa !8
  %63 = call i32 @BN_sub_word(ptr noundef %62, i64 noundef 1)
  %64 = icmp ne i32 %63, 0
  %65 = zext i1 %64 to i32
  %66 = call i32 @test_true(ptr noundef @.str.11, i32 noundef 559, ptr noundef @.str.98, i32 noundef %65)
  %67 = icmp ne i32 %66, 0
  br i1 %67, label %68, label %126

68:                                               ; preds = %61
  %69 = load ptr, ptr %2, align 8, !tbaa !8
  %70 = load ptr, ptr %2, align 8, !tbaa !8
  %71 = call i32 @BN_lshift1(ptr noundef %69, ptr noundef %70)
  %72 = icmp ne i32 %71, 0
  %73 = zext i1 %72 to i32
  %74 = call i32 @test_true(ptr noundef @.str.11, i32 noundef 561, ptr noundef @.str.99, i32 noundef %73)
  %75 = icmp ne i32 %74, 0
  br i1 %75, label %76, label %126

76:                                               ; preds = %68
  %77 = load ptr, ptr %4, align 8, !tbaa !13
  %78 = call i32 @ossl_rsa_sp800_56b_check_public(ptr noundef %77)
  %79 = icmp ne i32 %78, 0
  %80 = zext i1 %79 to i32
  %81 = call i32 @test_false(ptr noundef @.str.11, i32 noundef 562, ptr noundef @.str.95, i32 noundef %80)
  %82 = icmp ne i32 %81, 0
  br i1 %82, label %83, label %126

83:                                               ; preds = %76
  %84 = load ptr, ptr %2, align 8, !tbaa !8
  %85 = load ptr, ptr %2, align 8, !tbaa !8
  %86 = call i32 @BN_rshift1(ptr noundef %84, ptr noundef %85)
  %87 = icmp ne i32 %86, 0
  %88 = zext i1 %87 to i32
  %89 = call i32 @test_true(ptr noundef @.str.11, i32 noundef 563, ptr noundef @.str.100, i32 noundef %88)
  %90 = icmp ne i32 %89, 0
  br i1 %90, label %91, label %126

91:                                               ; preds = %83
  %92 = load ptr, ptr %3, align 8, !tbaa !8
  %93 = call i32 @BN_add_word(ptr noundef %92, i64 noundef 1)
  %94 = icmp ne i32 %93, 0
  %95 = zext i1 %94 to i32
  %96 = call i32 @test_true(ptr noundef @.str.11, i32 noundef 565, ptr noundef @.str.101, i32 noundef %95)
  %97 = icmp ne i32 %96, 0
  br i1 %97, label %98, label %126

98:                                               ; preds = %91
  %99 = load ptr, ptr %4, align 8, !tbaa !13
  %100 = call i32 @ossl_rsa_sp800_56b_check_public(ptr noundef %99)
  %101 = icmp ne i32 %100, 0
  %102 = zext i1 %101 to i32
  %103 = call i32 @test_false(ptr noundef @.str.11, i32 noundef 566, ptr noundef @.str.95, i32 noundef %102)
  %104 = icmp ne i32 %103, 0
  br i1 %104, label %105, label %126

105:                                              ; preds = %98
  %106 = load ptr, ptr %3, align 8, !tbaa !8
  %107 = call i32 @BN_sub_word(ptr noundef %106, i64 noundef 1)
  %108 = icmp ne i32 %107, 0
  %109 = zext i1 %108 to i32
  %110 = call i32 @test_true(ptr noundef @.str.11, i32 noundef 567, ptr noundef @.str.102, i32 noundef %109)
  %111 = icmp ne i32 %110, 0
  br i1 %111, label %112, label %126

112:                                              ; preds = %105
  %113 = load ptr, ptr %2, align 8, !tbaa !8
  %114 = call i32 @BN_add_word(ptr noundef %113, i64 noundef 2)
  %115 = icmp ne i32 %114, 0
  %116 = zext i1 %115 to i32
  %117 = call i32 @test_true(ptr noundef @.str.11, i32 noundef 569, ptr noundef @.str.103, i32 noundef %116)
  %118 = icmp ne i32 %117, 0
  br i1 %118, label %119, label %126

119:                                              ; preds = %112
  %120 = load ptr, ptr %4, align 8, !tbaa !13
  %121 = call i32 @ossl_rsa_sp800_56b_check_public(ptr noundef %120)
  %122 = icmp ne i32 %121, 0
  %123 = zext i1 %122 to i32
  %124 = call i32 @test_false(ptr noundef @.str.11, i32 noundef 570, ptr noundef @.str.95, i32 noundef %123)
  %125 = icmp ne i32 %124, 0
  br label %126

126:                                              ; preds = %119, %112, %105, %98, %91, %83, %76, %68, %61, %54, %47, %40
  %127 = phi i1 [ false, %112 ], [ false, %105 ], [ false, %98 ], [ false, %91 ], [ false, %83 ], [ false, %76 ], [ false, %68 ], [ false, %61 ], [ false, %54 ], [ false, %47 ], [ false, %40 ], [ %125, %119 ]
  %128 = zext i1 %127 to i32
  store i32 %128, ptr %1, align 4, !tbaa !4
  br label %129

129:                                              ; preds = %126, %37
  %130 = load ptr, ptr %4, align 8, !tbaa !13
  call void @RSA_free(ptr noundef %130)
  %131 = load i32, ptr %1, align 4, !tbaa !4
  call void @llvm.lifetime.end.p0(i64 8, ptr %4) #3
  call void @llvm.lifetime.end.p0(i64 8, ptr %3) #3
  call void @llvm.lifetime.end.p0(i64 8, ptr %2) #3
  call void @llvm.lifetime.end.p0(i64 4, ptr %1) #3
  ret i32 %131
}