; Function Attrs: nounwind uwtable
define internal range(i32 0, 2) i32 @test_check_public_key() #0 {
  %1 = tail call ptr @RSA_new() #2
  %2 = tail call i32 @test_ptr(ptr noundef nonnull @.str.11, i32 noundef 542, ptr noundef nonnull @.str.43, ptr noundef %1) #2
  %.not = icmp eq i32 %2, 0
  br i1 %.not, label %.thread, label %3

3:                                                ; preds = %0
  %4 = tail call i32 @ossl_rsa_sp800_56b_check_public(ptr noundef %1) #2
  %5 = icmp ne i32 %4, 0
  %6 = zext i1 %5 to i32
  %7 = tail call i32 @test_false(ptr noundef nonnull @.str.11, i32 noundef 544, ptr noundef nonnull @.str.95, i32 noundef %6) #2
  %.not24 = icmp eq i32 %7, 0
  br i1 %.not24, label %.thread, label %8

8:                                                ; preds = %3
  %9 = tail call ptr @BN_new() #2
  %.not.i = icmp eq ptr %9, null
  br i1 %.not.i, label %bn_load_new.exit, label %10

10:                                               ; preds = %8
  %11 = tail call ptr @BN_bin2bn(ptr noundef nonnull @cav_e, i32 noundef 3, ptr noundef nonnull %9) #2
  br label %bn_load_new.exit

bn_load_new.exit:                                 ; preds = %8, %10
  %12 = tail call i32 @test_ptr(ptr noundef nonnull @.str.11, i32 noundef 546, ptr noundef nonnull @.str.92, ptr noundef %9) #2
  %.not25 = icmp eq i32 %12, 0
  br i1 %.not25, label %.thread, label %13

13:                                               ; preds = %bn_load_new.exit
  %14 = tail call ptr @BN_new() #2
  %.not.i38 = icmp eq ptr %14, null
  br i1 %.not.i38, label %bn_load_new.exit39, label %15

15:                                               ; preds = %13
  %16 = tail call ptr @BN_bin2bn(ptr noundef nonnull @cav_n, i32 noundef 256, ptr noundef nonnull %14) #2
  br label %bn_load_new.exit39

bn_load_new.exit39:                               ; preds = %13, %15
  %17 = tail call i32 @test_ptr(ptr noundef nonnull @.str.11, i32 noundef 547, ptr noundef nonnull @.str.90, ptr noundef %14) #2
  %.not26 = icmp eq i32 %17, 0
  br i1 %.not26, label %.thread, label %18

18:                                               ; preds = %bn_load_new.exit39
  %19 = tail call i32 @RSA_set0_key(ptr noundef %1, ptr noundef %14, ptr noundef %9, ptr noundef null) #2
  %20 = icmp ne i32 %19, 0
  %21 = zext i1 %20 to i32
  %22 = tail call i32 @test_true(ptr noundef nonnull @.str.11, i32 noundef 548, ptr noundef nonnull @.str.96, i32 noundef %21) #2
  %.not44 = icmp eq i32 %22, 0
  br i1 %.not44, label %.thread, label %23

.thread:                                          ; preds = %0, %3, %bn_load_new.exit, %bn_load_new.exit39, %18
  %.043 = phi ptr [ %9, %18 ], [ null, %0 ], [ null, %3 ], [ %9, %bn_load_new.exit ], [ %9, %bn_load_new.exit39 ]
  %.02242 = phi ptr [ %14, %18 ], [ null, %0 ], [ null, %3 ], [ null, %bn_load_new.exit ], [ %14, %bn_load_new.exit39 ]
  tail call void @BN_free(ptr noundef %.043) #2
  tail call void @BN_free(ptr noundef %.02242) #2
  br label %85

23:                                               ; preds = %18
  %24 = tail call i32 @ossl_rsa_sp800_56b_check_public(ptr noundef %1) #2
  %25 = icmp ne i32 %24, 0
  %26 = zext i1 %25 to i32
  %27 = tail call i32 @test_true(ptr noundef nonnull @.str.11, i32 noundef 555, ptr noundef nonnull @.str.95, i32 noundef %26) #2
  %.not27 = icmp eq i32 %27, 0
  br i1 %.not27, label %85, label %28

28:                                               ; preds = %23
  %29 = tail call i32 @BN_add_word(ptr noundef %14, i64 noundef 1) #2
  %30 = icmp ne i32 %29, 0
  %31 = zext i1 %30 to i32
  %32 = tail call i32 @test_true(ptr noundef nonnull @.str.11, i32 noundef 557, ptr noundef nonnull @.str.97, i32 noundef %31) #2
  %.not28 = icmp eq i32 %32, 0
  br i1 %.not28, label %85, label %33

33:                                               ; preds = %28
  %34 = tail call i32 @ossl_rsa_sp800_56b_check_public(ptr noundef %1) #2
  %35 = icmp ne i32 %34, 0
  %36 = zext i1 %35 to i32
  %37 = tail call i32 @test_false(ptr noundef nonnull @.str.11, i32 noundef 558, ptr noundef nonnull @.str.95, i32 noundef %36) #2
  %.not29 = icmp eq i32 %37, 0
  br i1 %.not29, label %85, label %38

38:                                               ; preds = %33
  %39 = tail call i32 @BN_sub_word(ptr noundef %14, i64 noundef 1) #2
  %40 = icmp ne i32 %39, 0
  %41 = zext i1 %40 to i32
  %42 = tail call i32 @test_true(ptr noundef nonnull @.str.11, i32 noundef 559, ptr noundef nonnull @.str.98, i32 noundef %41) #2
  %.not30 = icmp eq i32 %42, 0
  br i1 %.not30, label %85, label %43

43:                                               ; preds = %38
  %44 = tail call i32 @BN_lshift1(ptr noundef %14, ptr noundef %14) #2
  %45 = icmp ne i32 %44, 0
  %46 = zext i1 %45 to i32
  %47 = tail call i32 @test_true(ptr noundef nonnull @.str.11, i32 noundef 561, ptr noundef nonnull @.str.99, i32 noundef %46) #2
  %.not31 = icmp eq i32 %47, 0
  br i1 %.not31, label %85, label %48

48:                                               ; preds = %43
  %49 = tail call i32 @ossl_rsa_sp800_56b_check_public(ptr noundef %1) #2
  %50 = icmp ne i32 %49, 0
  %51 = zext i1 %50 to i32
  %52 = tail call i32 @test_false(ptr noundef nonnull @.str.11, i32 noundef 562, ptr noundef nonnull @.str.95, i32 noundef %51) #2
  %.not32 = icmp eq i32 %52, 0
  br i1 %.not32, label %85, label %53

53:                                               ; preds = %48
  %54 = tail call i32 @BN_rshift1(ptr noundef %14, ptr noundef %14) #2
  %55 = icmp ne i32 %54, 0
  %56 = zext i1 %55 to i32
  %57 = tail call i32 @test_true(ptr noundef nonnull @.str.11, i32 noundef 563, ptr noundef nonnull @.str.100, i32 noundef %56) #2
  %.not33 = icmp eq i32 %57, 0
  br i1 %.not33, label %85, label %58

58:                                               ; preds = %53
  %59 = tail call i32 @BN_add_word(ptr noundef %9, i64 noundef 1) #2
  %60 = icmp ne i32 %59, 0
  %61 = zext i1 %60 to i32
  %62 = tail call i32 @test_true(ptr noundef nonnull @.str.11, i32 noundef 565, ptr noundef nonnull @.str.101, i32 noundef %61) #2
  %.not34 = icmp eq i32 %62, 0
  br i1 %.not34, label %85, label %63

63:                                               ; preds = %58
  %64 = tail call i32 @ossl_rsa_sp800_56b_check_public(ptr noundef %1) #2
  %65 = icmp ne i32 %64, 0
  %66 = zext i1 %65 to i32
  %67 = tail call i32 @test_false(ptr noundef nonnull @.str.11, i32 noundef 566, ptr noundef nonnull @.str.95, i32 noundef %66) #2
  %.not35 = icmp eq i32 %67, 0
  br i1 %.not35, label %85, label %68

68:                                               ; preds = %63
  %69 = tail call i32 @BN_sub_word(ptr noundef %9, i64 noundef 1) #2
  %70 = icmp ne i32 %69, 0
  %71 = zext i1 %70 to i32
  %72 = tail call i32 @test_true(ptr noundef nonnull @.str.11, i32 noundef 567, ptr noundef nonnull @.str.102, i32 noundef %71) #2
  %.not36 = icmp eq i32 %72, 0
  br i1 %.not36, label %85, label %73

73:                                               ; preds = %68
  %74 = tail call i32 @BN_add_word(ptr noundef %14, i64 noundef 2) #2
  %75 = icmp ne i32 %74, 0
  %76 = zext i1 %75 to i32
  %77 = tail call i32 @test_true(ptr noundef nonnull @.str.11, i32 noundef 569, ptr noundef nonnull @.str.103, i32 noundef %76) #2
  %.not37 = icmp eq i32 %77, 0
  br i1 %.not37, label %85, label %78

78:                                               ; preds = %73
  %79 = tail call i32 @ossl_rsa_sp800_56b_check_public(ptr noundef %1) #2
  %80 = icmp ne i32 %79, 0
  %81 = zext i1 %80 to i32
  %82 = tail call i32 @test_false(ptr noundef nonnull @.str.11, i32 noundef 570, ptr noundef nonnull @.str.95, i32 noundef %81) #2
  %83 = icmp ne i32 %82, 0
  %84 = zext i1 %83 to i32
  br label %85

85:                                               ; preds = %23, %28, %33, %38, %43, %48, %53, %58, %63, %68, %73, %78, %.thread
  %.023 = phi i32 [ 0, %.thread ], [ 0, %73 ], [ 0, %68 ], [ 0, %63 ], [ 0, %58 ], [ 0, %53 ], [ 0, %48 ], [ 0, %43 ], [ 0, %38 ], [ 0, %33 ], [ 0, %28 ], [ 0, %23 ], [ %84, %78 ]
  tail call void @RSA_free(ptr noundef %1) #2
  ret i32 %.023
}